; Function Attrs: mustprogress nofree nounwind memory(readwrite, inaccessiblemem: read) uwtable
define noundef ptr @_ZNK8tinyxml210XMLElement9AttributeEPKcS2_(ptr noundef nonnull readonly align 8 captures(none) dereferenceable(120) %0, ptr noundef readonly captures(address) %1, ptr noundef readonly captures(address) %2) local_unnamed_addr #9 align 2 {
  %4 = getelementptr inbounds nuw i8, ptr %0, i64 112
  %.0710.i = load ptr, ptr %4, align 8, !tbaa !103
  %.not11.i = icmp eq ptr %.0710.i, null
  br i1 %.not11.i, label %_ZNK8tinyxml210XMLElement13FindAttributeEPKc.exit.thread, label %.lr.ph.i

.lr.ph.i:                                         ; preds = %3, %10
  %.0712.i = phi ptr [ %.07.i, %10 ], [ %.0710.i, %3 ]
  %5 = getelementptr inbounds nuw i8, ptr %.0712.i, i64 8
  %6 = tail call noundef ptr @_ZN8tinyxml27StrPair6GetStrEv(ptr noundef nonnull align 8 dereferenceable(24) %5)
  %7 = icmp eq ptr %6, %1
  br i1 %7, label %_ZNK8tinyxml210XMLElement13FindAttributeEPKc.exit, label %_ZN8tinyxml27XMLUtil11StringEqualEPKcS2_i.exit.i

_ZN8tinyxml27XMLUtil11StringEqualEPKcS2_i.exit.i: ; preds = %.lr.ph.i
  %8 = tail call i32 @strncmp(ptr noundef nonnull dereferenceable(1) %6, ptr noundef nonnull readonly dereferenceable(1) %1, i64 noundef 2147483647) #33
  %9 = icmp eq i32 %8, 0
  br i1 %9, label %_ZNK8tinyxml210XMLElement13FindAttributeEPKc.exit, label %10

10:                                               ; preds = %_ZN8tinyxml27XMLUtil11StringEqualEPKcS2_i.exit.i
  %11 = getelementptr inbounds nuw i8, ptr %.0712.i, i64 64
  %.07.i = load ptr, ptr %11, align 8, !tbaa !103
  %.not.i = icmp eq ptr %.07.i, null
  br i1 %.not.i, label %_ZNK8tinyxml210XMLElement13FindAttributeEPKc.exit.thread, label %.lr.ph.i, !llvm.loop !104

_ZNK8tinyxml210XMLElement13FindAttributeEPKc.exit: ; preds = %_ZN8tinyxml27XMLUtil11StringEqualEPKcS2_i.exit.i, %.lr.ph.i
  %.not10 = icmp eq ptr %2, null
  br i1 %.not10, label %_ZN8tinyxml27XMLUtil11StringEqualEPKcS2_i.exit.thread, label %12

12:                                               ; preds = %_ZNK8tinyxml210XMLElement13FindAttributeEPKc.exit
  %13 = getelementptr inbounds nuw i8, ptr %.0712.i, i64 32
  %14 = tail call noundef ptr @_ZN8tinyxml27StrPair6GetStrEv(ptr noundef nonnull align 8 dereferenceable(24) %13)
  %15 = icmp eq ptr %14, %2
  br i1 %15, label %_ZN8tinyxml27XMLUtil11StringEqualEPKcS2_i.exit.thread, label %_ZN8tinyxml27XMLUtil11StringEqualEPKcS2_i.exit

_ZN8tinyxml27XMLUtil11StringEqualEPKcS2_i.exit:   ; preds = %12
  %16 = tail call i32 @strncmp(ptr noundef nonnull dereferenceable(1) %14, ptr noundef nonnull dereferenceable(1) %2, i64 noundef 2147483647) #33
  %17 = icmp eq i32 %16, 0
  br i1 %17, label %_ZN8tinyxml27XMLUtil11StringEqualEPKcS2_i.exit.thread, label %_ZNK8tinyxml210XMLElement13FindAttributeEPKc.exit.thread

_ZN8tinyxml27XMLUtil11StringEqualEPKcS2_i.exit.thread: ; preds = %12, %_ZN8tinyxml27XMLUtil11StringEqualEPKcS2_i.exit, %_ZNK8tinyxml210XMLElement13FindAttributeEPKc.exit
  %18 = getelementptr inbounds nuw i8, ptr %.0712.i, i64 32
  %19 = tail call noundef ptr @_ZN8tinyxml27StrPair6GetStrEv(ptr noundef nonnull align 8 dereferenceable(24) %18)
  br label %_ZNK8tinyxml210XMLElement13FindAttributeEPKc.exit.thread

_ZNK8tinyxml210XMLElement13FindAttributeEPKc.exit.thread: ; preds = %10, %3, %_ZN8tinyxml27XMLUtil11StringEqualEPKcS2_i.exit, %_ZN8tinyxml27XMLUtil11StringEqualEPKcS2_i.exit.thread
  %.0 = phi ptr [ %19, %_ZN8tinyxml27XMLUtil11StringEqualEPKcS2_i.exit.thread ], [ null, %_ZN8tinyxml27XMLUtil11StringEqualEPKcS2_i.exit ], [ null, %3 ], [ null, %10 ]
  ret ptr %.0
}